; Function Attrs: null_pointer_is_valid sspstrong uwtable
define internal fastcc i32 @fOctetString(ptr noundef nonnull %0, ptr noundef %1, ptr noundef %2, i32 noundef %3, ptr noundef %4) unnamed_addr #0 {
  %6 = alloca i32, align 4
  %7 = alloca i8, align 1
  %8 = alloca i8, align 1
  call void @llvm.lifetime.start.p0(i64 1, ptr nonnull %7) #6
  call void @llvm.lifetime.start.p0(i64 1, ptr nonnull %8) #6
  %9 = call fastcc range(i32 1, 8) i32 @fTagHeaderTree(ptr noundef nonnull %0, ptr noundef %1, ptr noundef null, i32 noundef %3, ptr noundef nonnull %7, ptr noundef nonnull %8, ptr noundef nonnull %6)
  %10 = add i32 %9, %3
  %11 = load i32, ptr %6, align 4
  %.not = icmp eq i32 %11, 0
  br i1 %.not, label %19, label %12

12:                                               ; preds = %5
  %13 = getelementptr inbounds nuw i8, ptr %1, i64 408
  %14 = load ptr, ptr %13, align 8
  %15 = tail call ptr @tvb_bytes_to_str(ptr noundef %14, ptr noundef nonnull %0, i32 noundef %10, i32 noundef %11)
  %16 = load i32, ptr @ett_bacapp_tag, align 4
  %17 = tail call ptr (ptr, ptr, i32, i32, i32, ptr, ptr, ...) @proto_tree_add_subtree_format(ptr noundef %2, ptr noundef nonnull %0, i32 noundef %10, i32 noundef %11, i32 noundef %16, ptr noundef null, ptr noundef nonnull @.str.2615, ptr noundef %4, ptr noundef %15)
  %18 = add i32 %11, %10
  br label %19

19:                                               ; preds = %12, %5
  %.019 = phi i32 [ %18, %12 ], [ %10, %5 ]
  %.0 = phi ptr [ %17, %12 ], [ %2, %5 ]
  %20 = call fastcc i32 @fTagHeaderTree(ptr noundef %0, ptr noundef %1, ptr noundef %.0, i32 noundef %3, ptr noundef nonnull %7, ptr noundef nonnull %8, ptr noundef nonnull %6)
  call void @llvm.lifetime.end.p0(i64 1, ptr nonnull %8) #6
  call void @llvm.lifetime.end.p0(i64 1, ptr nonnull %7) #6
  ret i32 %.019
}